; Function Attrs: nounwind sspstrong uwtable
define dso_local i64 @icount_get_raw() local_unnamed_addr #0 {
entry:
  %0 = tail call align 8 ptr @llvm.threadlocal.address.p0(ptr align 8 @current_cpu)
  br label %do.body

do.body:                                          ; preds = %icount_get_raw_locked.exit, %entry
  %1 = load atomic i32, ptr getelementptr inbounds nuw (i8, ptr @timers_state, i64 16) monotonic, align 8
  tail call void asm sideeffect "", "~{memory},~{dirflag},~{fpsr},~{flags}"() #9, !srcloc !11
  fence acquire
  %and.i = and i32 %1, -2
  %2 = load ptr, ptr %0, align 8
  %tobool.not.i = icmp eq ptr %2, null
  br i1 %tobool.not.i, label %icount_get_raw_locked.exit, label %land.lhs.true.i

land.lhs.true.i:                                  ; preds = %do.body
  %running.i = getelementptr inbounds nuw i8, ptr %2, i64 188
  %3 = load i8, ptr %running.i, align 4
  %tobool1.i = trunc i8 %3 to i1
  br i1 %tobool1.i, label %if.then.i, label %icount_get_raw_locked.exit

if.then.i:                                        ; preds = %land.lhs.true.i
  %can_do_io.i = getelementptr inbounds nuw i8, ptr %2, i64 10164
  %4 = load i8, ptr %can_do_io.i, align 4
  %tobool2.i = trunc i8 %4 to i1
  br i1 %tobool2.i, label %if.end.i, label %if.then3.i

if.then3.i:                                       ; preds = %if.then.i
  tail call void (ptr, ...) @error_report(ptr noundef nonnull @.str.14) #9
  tail call void @exit(i32 noundef 1) #10
  unreachable

if.end.i:                                         ; preds = %if.then.i
  %icount_budget.i.i.i = getelementptr inbounds nuw i8, ptr %2, i64 224
  %5 = load i64, ptr %icount_budget.i.i.i, align 16
  %icount_decr.i.i.i = getelementptr inbounds nuw i8, ptr %2, i64 10160
  %6 = load i16, ptr %icount_decr.i.i.i, align 16
  %conv.i.i.i = zext i16 %6 to i64
  %icount_extra.i.i.i = getelementptr inbounds nuw i8, ptr %2, i64 232
  %7 = load i64, ptr %icount_extra.i.i.i, align 8
  %8 = add i64 %7, %conv.i.i.i
  %sub.i.i.i = sub i64 %5, %8
  store i64 %8, ptr %icount_budget.i.i.i, align 16
  %9 = load i64, ptr getelementptr inbounds nuw (i8, ptr @timers_state, i64 64), align 8
  %add.i.i = add i64 %sub.i.i.i, %9
  store atomic i64 %add.i.i, ptr getelementptr inbounds nuw (i8, ptr @timers_state, i64 64) monotonic, align 8
  br label %icount_get_raw_locked.exit

icount_get_raw_locked.exit:                       ; preds = %do.body, %land.lhs.true.i, %if.end.i
  %10 = load atomic i64, ptr getelementptr inbounds nuw (i8, ptr @timers_state, i64 64) monotonic, align 8
  tail call void asm sideeffect "", "~{memory},~{dirflag},~{fpsr},~{flags}"() #9, !srcloc !12
  fence acquire
  %11 = load atomic i32, ptr getelementptr inbounds nuw (i8, ptr @timers_state, i64 16) monotonic, align 8
  %cmp.i.not = icmp eq i32 %11, %and.i
  br i1 %cmp.i.not, label %do.end, label %do.body, !llvm.loop !13

do.end:                                           ; preds = %icount_get_raw_locked.exit
  ret i64 %10
}